target datalayout = "e-m:e-p270:32:32-p271:32:32-p272:64:64-i64:64-i128:128-f80:128-n8:16:32:64-S128"
target triple = "x86_64-pc-linux-gnu"

%class.JfrStackFrame = type <{ ptr, i64, i32, i32, i8, [7 x i8] }>

; Function Attrs: mustprogress nounwind uwtable
define hidden void @_ZN13JfrStackFrameC2ERKmihiPK13InstanceKlass(ptr noundef nonnull align 8 dereferenceable(25) %0, ptr noundef nonnull align 8 dereferenceable(8) %1, i32 noundef %2, i8 noundef zeroext %3, i32 noundef %4, ptr noundef %5) unnamed_addr #1 align 2 {
  %7 = alloca ptr, align 8
  %8 = alloca ptr, align 8
  %9 = alloca i32, align 4
  %10 = alloca i8, align 1
  %11 = alloca i32, align 4
  %12 = alloca ptr, align 8
  store ptr %0, ptr %7, align 8
  store ptr %1, ptr %8, align 8
  store i32 %2, ptr %9, align 4
  store i8 %3, ptr %10, align 1
  store i32 %4, ptr %11, align 4
  store ptr %5, ptr %12, align 8
  %13 = load ptr, ptr %7, align 8
  %14 = getelementptr inbounds %class.JfrStackFrame, ptr %13, i32 0, i32 0
  %15 = load ptr, ptr %12, align 8
  store ptr %15, ptr %14, align 8
  %16 = getelementptr inbounds %class.JfrStackFrame, ptr %13, i32 0, i32 1
  %17 = load ptr, ptr %8, align 8
  %18 = load i64, ptr %17, align 8
  store i64 %18, ptr %16, align 8
  %19 = getelementptr inbounds %class.JfrStackFrame, ptr %13, i32 0, i32 2
  %20 = load i32, ptr %11, align 4
  store i32 %20, ptr %19, align 8
  %21 = getelementptr inbounds %class.JfrStackFrame, ptr %13, i32 0, i32 3
  %22 = load i32, ptr %9, align 4
  store i32 %22, ptr %21, align 4
  %23 = getelementptr inbounds %class.JfrStackFrame, ptr %13, i32 0, i32 4
  %24 = load i8, ptr %10, align 1
  store i8 %24, ptr %23, align 8
  ret void
}