; Function Attrs: mustprogress nofree norecurse nosync nounwind willreturn memory(argmem: readwrite) uwtable
define hidden void @_ZN13JfrStackFrameC2ERKmihiPK13InstanceKlass(ptr nocapture noundef nonnull writeonly align 8 dereferenceable(25) %0, ptr nocapture noundef nonnull readonly align 8 dereferenceable(8) %1, i32 noundef %2, i8 noundef zeroext %3, i32 noundef %4, ptr noundef %5) unnamed_addr #0 align 2 {
  store ptr %5, ptr %0, align 8
  %7 = getelementptr inbounds i8, ptr %0, i64 8
  %8 = load i64, ptr %1, align 8
  store i64 %8, ptr %7, align 8
  %9 = getelementptr inbounds i8, ptr %0, i64 16
  store i32 %4, ptr %9, align 8
  %10 = getelementptr inbounds i8, ptr %0, i64 20
  store i32 %2, ptr %10, align 4
  %11 = getelementptr inbounds i8, ptr %0, i64 24
  store i8 %3, ptr %11, align 8
  ret void
}